; Function Attrs: mustprogress nounwind uwtable
define hidden void @_ZN14ZPageAllocator12destroy_pageEP5ZPage(ptr noundef nonnull align 8 dereferenceable(609) %0, ptr noundef %1) local_unnamed_addr #1 align 2 {
  %3 = getelementptr inbounds i8, ptr %0, i64 104
  %4 = getelementptr inbounds i8, ptr %1, i64 16
  tail call void @_ZN21ZVirtualMemoryManager4freeERK14ZVirtualMemory(ptr noundef nonnull align 8 dereferenceable(121) %3, ptr noundef nonnull align 8 dereferenceable(16) %4) #13
  %5 = getelementptr inbounds i8, ptr %0, i64 232
  %6 = getelementptr inbounds i8, ptr %1, i64 160
  tail call void @_ZN22ZPhysicalMemoryManager4freeERK15ZPhysicalMemory(ptr noundef nonnull align 8 dereferenceable(160) %5, ptr noundef nonnull align 8 dereferenceable(16) %6) #13
  %7 = getelementptr inbounds i8, ptr %0, i64 536
  tail call void @_ZN11ZSafeDeleteI5ZPageE15schedule_deleteEPS0_(ptr noundef nonnull align 8 dereferenceable(32) %7, ptr noundef %1)
  ret void
}